target datalayout = "e-m:e-p270:32:32-p271:32:32-p272:64:64-i64:64-i128:128-f80:128-n8:16:32:64-S128"
target triple = "x86_64-pc-linux-gnu"

; Function Attrs: mustprogress nounwind uwtable
define noundef signext i8 @_ZN6icu_7711ICU_Utility21shouldAlwaysBeEscapedEi(i32 noundef %0) #0 align 2 {
  %2 = alloca i8, align 1
  %3 = alloca i32, align 4
  store i32 %0, ptr %3, align 4, !tbaa !14
  %4 = load i32, ptr %3, align 4, !tbaa !14
  %5 = icmp slt i32 %4, 32
  br i1 %5, label %6, label %7

6:                                                ; preds = %1
  store i8 1, ptr %2, align 1
  br label %38

7:                                                ; preds = %1
  %8 = load i32, ptr %3, align 4, !tbaa !14
  %9 = icmp sle i32 %8, 126
  br i1 %9, label %10, label %11

10:                                               ; preds = %7
  store i8 0, ptr %2, align 1
  br label %38

11:                                               ; preds = %7
  %12 = load i32, ptr %3, align 4, !tbaa !14
  %13 = icmp sle i32 %12, 159
  br i1 %13, label %14, label %15

14:                                               ; preds = %11
  store i8 1, ptr %2, align 1
  br label %38

15:                                               ; preds = %11
  %16 = load i32, ptr %3, align 4, !tbaa !14
  %17 = icmp slt i32 %16, 55296
  br i1 %17, label %18, label %19

18:                                               ; preds = %15
  store i8 0, ptr %2, align 1
  br label %38

19:                                               ; preds = %15
  %20 = load i32, ptr %3, align 4, !tbaa !14
  %21 = icmp sle i32 %20, 57343
  br i1 %21, label %32, label %22

22:                                               ; preds = %19
  %23 = load i32, ptr %3, align 4, !tbaa !14
  %24 = icmp sle i32 64976, %23
  br i1 %24, label %25, label %28

25:                                               ; preds = %22
  %26 = load i32, ptr %3, align 4, !tbaa !14
  %27 = icmp sle i32 %26, 65007
  br i1 %27, label %32, label %28

28:                                               ; preds = %25, %22
  %29 = load i32, ptr %3, align 4, !tbaa !14
  %30 = and i32 %29, 65534
  %31 = icmp eq i32 %30, 65534
  br i1 %31, label %32, label %33

32:                                               ; preds = %28, %25, %19
  store i8 1, ptr %2, align 1
  br label %38

33:                                               ; preds = %28
  %34 = load i32, ptr %3, align 4, !tbaa !14
  %35 = icmp sle i32 %34, 1114111
  br i1 %35, label %36, label %37

36:                                               ; preds = %33
  store i8 0, ptr %2, align 1
  br label %38

37:                                               ; preds = %33
  store i8 1, ptr %2, align 1
  br label %38

38:                                               ; preds = %37, %36, %32, %18, %14, %10, %6
  %39 = load i8, ptr %2, align 1
  ret i8 %39
}