; Function Attrs: mustprogress nofree norecurse nosync nounwind willreturn memory(none) uwtable
define noundef signext range(i8 0, 2) i8 @_ZN6icu_7711ICU_Utility21shouldAlwaysBeEscapedEi(i32 noundef %0) local_unnamed_addr #10 align 2 {
  %2 = icmp slt i32 %0, 32
  br i1 %2, label %16, label %3

3:                                                ; preds = %1
  %4 = icmp samesign ult i32 %0, 127
  br i1 %4, label %16, label %5

5:                                                ; preds = %3
  %6 = icmp samesign ult i32 %0, 160
  br i1 %6, label %16, label %7

7:                                                ; preds = %5
  %8 = icmp samesign ult i32 %0, 55296
  br i1 %8, label %16, label %9

9:                                                ; preds = %7
  %10 = icmp samesign ult i32 %0, 57344
  %11 = add nsw i32 %0, -64976
  %or.cond = icmp ult i32 %11, 32
  %or.cond12 = select i1 %10, i1 true, i1 %or.cond
  %12 = and i32 %0, 65534
  %13 = icmp eq i32 %12, 65534
  %or.cond14 = or i1 %13, %or.cond12
  br i1 %or.cond14, label %16, label %14

14:                                               ; preds = %9
  %15 = icmp samesign ugt i32 %0, 1114111
  %. = zext i1 %15 to i8
  br label %16

16:                                               ; preds = %14, %9, %7, %5, %3, %1
  %.0 = phi i8 [ 1, %1 ], [ 0, %3 ], [ 1, %5 ], [ 0, %7 ], [ 1, %9 ], [ %., %14 ]
  ret i8 %.0
}